target datalayout = "e-m:e-p270:32:32-p271:32:32-p272:64:64-i64:64-i128:128-f80:128-n8:16:32:64-S128"
target triple = "x86_64-pc-linux-gnu"

%struct.Vec_Int_t_ = type { i32, i32, ptr }
%struct.Gia_Man_t_ = type { ptr, ptr, i32, i32, i32, i32, ptr, ptr, i32, i32, i32, ptr, ptr, %struct.Vec_Int_t_, %struct.Vec_Int_t_, i32, i32, i32, %struct.Vec_Int_t_, ptr, ptr, ptr, i32, i32, i32, i32, ptr, ptr, ptr, ptr, ptr, i32, i32, ptr, i32, ptr, ptr, ptr, ptr, ptr, ptr, ptr, ptr, ptr, ptr, ptr, ptr, ptr, ptr, ptr, ptr, ptr, ptr, %struct.Vec_Int_t_, %struct.Vec_Int_t_, ptr, ptr, ptr, ptr, ptr, ptr, ptr, ptr, ptr, ptr, ptr, ptr, ptr, ptr, ptr, ptr, ptr, ptr, ptr, ptr, ptr, i32, float, float, ptr, ptr, i32, ptr, ptr, ptr, ptr, ptr, ptr, ptr, ptr, ptr, ptr, ptr, ptr, ptr, ptr, ptr, i64, i64, ptr, ptr, i32, i32, i32, i32, i32, i32, i32, i32, i32, i32, i32, i32, ptr, ptr, ptr, ptr, ptr, ptr, ptr, ptr, i32, i32, i32, ptr, i32, i32, ptr, ptr, ptr, ptr, ptr, ptr, i32, i32, ptr, %struct.Vec_Int_t_, %struct.Vec_Int_t_, %struct.Vec_Int_t_, ptr, ptr, ptr }
%struct.Gia_Obj_t_ = type <{ i64, i32 }>

@.str.2 = private unnamed_addr constant [49 x i8] c"Cannot find object with Id %d in the given AIG.\0A\00", align 1

; Function Attrs: nounwind uwtable
define internal void @Vec_IntGrow(ptr noundef %0, i32 noundef %1) #0 {
  %3 = alloca ptr, align 8
  %4 = alloca i32, align 4
  store ptr %0, ptr %3, align 8
  store i32 %1, ptr %4, align 4
  %5 = load ptr, ptr %3, align 8
  %6 = getelementptr inbounds %struct.Vec_Int_t_, ptr %5, i32 0, i32 0
  %7 = load i32, ptr %6, align 8
  %8 = load i32, ptr %4, align 4
  %9 = icmp sge i32 %7, %8
  br i1 %9, label %10, label %11

10:                                               ; preds = %2
  br label %36

11:                                               ; preds = %2
  %12 = load ptr, ptr %3, align 8
  %13 = getelementptr inbounds %struct.Vec_Int_t_, ptr %12, i32 0, i32 2
  %14 = load ptr, ptr %13, align 8
  %15 = icmp ne ptr %14, null
  br i1 %15, label %16, label %24

16:                                               ; preds = %11
  %17 = load ptr, ptr %3, align 8
  %18 = getelementptr inbounds %struct.Vec_Int_t_, ptr %17, i32 0, i32 2
  %19 = load ptr, ptr %18, align 8
  %20 = load i32, ptr %4, align 4
  %21 = sext i32 %20 to i64
  %22 = mul i64 4, %21
  %23 = call ptr @realloc(ptr noundef %19, i64 noundef %22) #9
  br label %29

24:                                               ; preds = %11
  %25 = load i32, ptr %4, align 4
  %26 = sext i32 %25 to i64
  %27 = mul i64 4, %26
  %28 = call noalias ptr @malloc(i64 noundef %27) #7
  br label %29

29:                                               ; preds = %24, %16
  %30 = phi ptr [ %23, %16 ], [ %28, %24 ]
  %31 = load ptr, ptr %3, align 8
  %32 = getelementptr inbounds %struct.Vec_Int_t_, ptr %31, i32 0, i32 2
  store ptr %30, ptr %32, align 8
  %33 = load i32, ptr %4, align 4
  %34 = load ptr, ptr %3, align 8
  %35 = getelementptr inbounds %struct.Vec_Int_t_, ptr %34, i32 0, i32 0
  store i32 %33, ptr %35, align 8
  br label %36

36:                                               ; preds = %29, %10
  ret void
}

; Function Attrs: nounwind uwtable
define internal void @Vec_IntFree(ptr noundef %0) #0 {
  %2 = alloca ptr, align 8
  store ptr %0, ptr %2, align 8
  %3 = load ptr, ptr %2, align 8
  %4 = getelementptr inbounds %struct.Vec_Int_t_, ptr %3, i32 0, i32 2
  %5 = load ptr, ptr %4, align 8
  %6 = icmp ne ptr %5, null
  br i1 %6, label %7, label %13

7:                                                ; preds = %1
  %8 = load ptr, ptr %2, align 8
  %9 = getelementptr inbounds %struct.Vec_Int_t_, ptr %8, i32 0, i32 2
  %10 = load ptr, ptr %9, align 8
  call void @free(ptr noundef %10) #8
  %11 = load ptr, ptr %2, align 8
  %12 = getelementptr inbounds %struct.Vec_Int_t_, ptr %11, i32 0, i32 2
  store ptr null, ptr %12, align 8
  br label %14

13:                                               ; preds = %1
  br label %14

14:                                               ; preds = %13, %7
  %15 = load ptr, ptr %2, align 8
  %16 = icmp ne ptr %15, null
  br i1 %16, label %17, label %19

17:                                               ; preds = %14
  %18 = load ptr, ptr %2, align 8
  call void @free(ptr noundef %18) #8
  store ptr null, ptr %2, align 8
  br label %20

19:                                               ; preds = %14
  br label %20

20:                                               ; preds = %19, %17
  ret void
}

; Function Attrs: nounwind uwtable
define internal void @Vec_IntPush(ptr noundef %0, i32 noundef %1) #0 {
  %3 = alloca ptr, align 8
  %4 = alloca i32, align 4
  store ptr %0, ptr %3, align 8
  store i32 %1, ptr %4, align 4
  %5 = load ptr, ptr %3, align 8
  %6 = getelementptr inbounds %struct.Vec_Int_t_, ptr %5, i32 0, i32 1
  %7 = load i32, ptr %6, align 4
  %8 = load ptr, ptr %3, align 8
  %9 = getelementptr inbounds %struct.Vec_Int_t_, ptr %8, i32 0, i32 0
  %10 = load i32, ptr %9, align 8
  %11 = icmp eq i32 %7, %10
  br i1 %11, label %12, label %26

12:                                               ; preds = %2
  %13 = load ptr, ptr %3, align 8
  %14 = getelementptr inbounds %struct.Vec_Int_t_, ptr %13, i32 0, i32 0
  %15 = load i32, ptr %14, align 8
  %16 = icmp slt i32 %15, 16
  br i1 %16, label %17, label %19

17:                                               ; preds = %12
  %18 = load ptr, ptr %3, align 8
  call void @Vec_IntGrow(ptr noundef %18, i32 noundef 16)
  br label %25

19:                                               ; preds = %12
  %20 = load ptr, ptr %3, align 8
  %21 = load ptr, ptr %3, align 8
  %22 = getelementptr inbounds %struct.Vec_Int_t_, ptr %21, i32 0, i32 0
  %23 = load i32, ptr %22, align 8
  %24 = mul nsw i32 2, %23
  call void @Vec_IntGrow(ptr noundef %20, i32 noundef %24)
  br label %25

25:                                               ; preds = %19, %17
  br label %26

26:                                               ; preds = %25, %2
  %27 = load i32, ptr %4, align 4
  %28 = load ptr, ptr %3, align 8
  %29 = getelementptr inbounds %struct.Vec_Int_t_, ptr %28, i32 0, i32 2
  %30 = load ptr, ptr %29, align 8
  %31 = load ptr, ptr %3, align 8
  %32 = getelementptr inbounds %struct.Vec_Int_t_, ptr %31, i32 0, i32 1
  %33 = load i32, ptr %32, align 4
  %34 = add nsw i32 %33, 1
  store i32 %34, ptr %32, align 4
  %35 = sext i32 %33 to i64
  %36 = getelementptr inbounds i32, ptr %30, i64 %35
  store i32 %27, ptr %36, align 4
  ret void
}

; Function Attrs: nounwind uwtable
define internal i32 @Abc_Lit2Var(i32 noundef %0) #0 {
  %2 = alloca i32, align 4
  store i32 %0, ptr %2, align 4
  %3 = load i32, ptr %2, align 4
  %4 = ashr i32 %3, 1
  ret i32 %4
}

; Function Attrs: nounwind uwtable
define internal i32 @Gia_ManObjNum(ptr noundef %0) #0 {
  %2 = alloca ptr, align 8
  store ptr %0, ptr %2, align 8
  %3 = load ptr, ptr %2, align 8
  %4 = getelementptr inbounds %struct.Gia_Man_t_, ptr %3, i32 0, i32 4
  %5 = load i32, ptr %4, align 8
  ret i32 %5
}

; Function Attrs: nounwind uwtable
define internal i32 @Vec_IntEntry(ptr noundef %0, i32 noundef %1) #0 {
  %3 = alloca ptr, align 8
  %4 = alloca i32, align 4
  store ptr %0, ptr %3, align 8
  store i32 %1, ptr %4, align 4
  %5 = load ptr, ptr %3, align 8
  %6 = getelementptr inbounds %struct.Vec_Int_t_, ptr %5, i32 0, i32 2
  %7 = load ptr, ptr %6, align 8
  %8 = load i32, ptr %4, align 4
  %9 = sext i32 %8 to i64
  %10 = getelementptr inbounds i32, ptr %7, i64 %9
  %11 = load i32, ptr %10, align 4
  ret i32 %11
}

; Function Attrs: nounwind uwtable
define internal i32 @Vec_IntSize(ptr noundef %0) #0 {
  %2 = alloca ptr, align 8
  store ptr %0, ptr %2, align 8
  %3 = load ptr, ptr %2, align 8
  %4 = getelementptr inbounds %struct.Vec_Int_t_, ptr %3, i32 0, i32 1
  %5 = load i32, ptr %4, align 4
  ret i32 %5
}

; Function Attrs: nounwind uwtable
define internal ptr @Gia_ManObj(ptr noundef %0, i32 noundef %1) #0 {
  %3 = alloca ptr, align 8
  %4 = alloca i32, align 4
  store ptr %0, ptr %3, align 8
  store i32 %1, ptr %4, align 4
  %5 = load ptr, ptr %3, align 8
  %6 = getelementptr inbounds %struct.Gia_Man_t_, ptr %5, i32 0, i32 6
  %7 = load ptr, ptr %6, align 8
  %8 = load i32, ptr %4, align 4
  %9 = sext i32 %8 to i64
  %10 = getelementptr inbounds %struct.Gia_Obj_t_, ptr %7, i64 %9
  ret ptr %10
}

; Function Attrs: nounwind uwtable
define internal ptr @Vec_IntAlloc(i32 noundef %0) #0 {
  %2 = alloca i32, align 4
  %3 = alloca ptr, align 8
  store i32 %0, ptr %2, align 4
  %4 = call noalias ptr @malloc(i64 noundef 16) #7
  store ptr %4, ptr %3, align 8
  %5 = load i32, ptr %2, align 4
  %6 = icmp sgt i32 %5, 0
  br i1 %6, label %7, label %11

7:                                                ; preds = %1
  %8 = load i32, ptr %2, align 4
  %9 = icmp slt i32 %8, 16
  br i1 %9, label %10, label %11

10:                                               ; preds = %7
  store i32 16, ptr %2, align 4
  br label %11

11:                                               ; preds = %10, %7, %1
  %12 = load ptr, ptr %3, align 8
  %13 = getelementptr inbounds %struct.Vec_Int_t_, ptr %12, i32 0, i32 1
  store i32 0, ptr %13, align 4
  %14 = load i32, ptr %2, align 4
  %15 = load ptr, ptr %3, align 8
  %16 = getelementptr inbounds %struct.Vec_Int_t_, ptr %15, i32 0, i32 0
  store i32 %14, ptr %16, align 8
  %17 = load ptr, ptr %3, align 8
  %18 = getelementptr inbounds %struct.Vec_Int_t_, ptr %17, i32 0, i32 0
  %19 = load i32, ptr %18, align 8
  %20 = icmp ne i32 %19, 0
  br i1 %20, label %21, label %28

21:                                               ; preds = %11
  %22 = load ptr, ptr %3, align 8
  %23 = getelementptr inbounds %struct.Vec_Int_t_, ptr %22, i32 0, i32 0
  %24 = load i32, ptr %23, align 8
  %25 = sext i32 %24 to i64
  %26 = mul i64 4, %25
  %27 = call noalias ptr @malloc(i64 noundef %26) #7
  br label %29

28:                                               ; preds = %11
  br label %29

29:                                               ; preds = %28, %21
  %30 = phi ptr [ %27, %21 ], [ null, %28 ]
  %31 = load ptr, ptr %3, align 8
  %32 = getelementptr inbounds %struct.Vec_Int_t_, ptr %31, i32 0, i32 2
  store ptr %30, ptr %32, align 8
  %33 = load ptr, ptr %3, align 8
  ret ptr %33
}

; Function Attrs: nounwind uwtable
define ptr @Bmc_ManBCoreCollectPivots(ptr noundef %0, ptr noundef %1, ptr noundef %2) #0 {
  %4 = alloca ptr, align 8
  %5 = alloca ptr, align 8
  %6 = alloca ptr, align 8
  %7 = alloca ptr, align 8
  %8 = alloca i32, align 4
  %9 = alloca i32, align 4
  %10 = alloca i32, align 4
  %11 = alloca ptr, align 8
  %12 = alloca ptr, align 8
  store ptr %0, ptr %4, align 8
  store ptr %1, ptr %5, align 8
  store ptr %2, ptr %6, align 8
  %13 = call ptr @Vec_IntAlloc(i32 noundef 100)
  store ptr %13, ptr %11, align 8
  %14 = load ptr, ptr %5, align 8
  %15 = call ptr @Bmc_ManBCoreReadPivots(ptr noundef %14)
  store ptr %15, ptr %12, align 8
  store i32 0, ptr %8, align 4
  br label %16

16:                                               ; preds = %34, %3
  %17 = load i32, ptr %8, align 4
  %18 = load ptr, ptr %4, align 8
  %19 = getelementptr inbounds %struct.Gia_Man_t_, ptr %18, i32 0, i32 4
  %20 = load i32, ptr %19, align 8
  %21 = icmp slt i32 %17, %20
  br i1 %21, label %22, label %27

22:                                               ; preds = %16
  %23 = load ptr, ptr %4, align 8
  %24 = load i32, ptr %8, align 4
  %25 = call ptr @Gia_ManObj(ptr noundef %23, i32 noundef %24)
  store ptr %25, ptr %7, align 8
  %26 = icmp ne ptr %25, null
  br label %27

27:                                               ; preds = %22, %16
  %28 = phi i1 [ false, %16 ], [ %26, %22 ]
  br i1 %28, label %29, label %37

29:                                               ; preds = %27
  %30 = load ptr, ptr %7, align 8
  %31 = load i64, ptr %30, align 4
  %32 = and i64 %31, -1073741825
  %33 = or i64 %32, 0
  store i64 %33, ptr %30, align 4
  br label %34

34:                                               ; preds = %29
  %35 = load i32, ptr %8, align 4
  %36 = add nsw i32 %35, 1
  store i32 %36, ptr %8, align 4
  br label %16, !llvm.loop !6

37:                                               ; preds = %27
  store i32 0, ptr %8, align 4
  br label %38

38:                                               ; preds = %68, %37
  %39 = load i32, ptr %8, align 4
  %40 = load ptr, ptr %12, align 8
  %41 = call i32 @Vec_IntSize(ptr noundef %40)
  %42 = icmp slt i32 %39, %41
  br i1 %42, label %43, label %47

43:                                               ; preds = %38
  %44 = load ptr, ptr %12, align 8
  %45 = load i32, ptr %8, align 4
  %46 = call i32 @Vec_IntEntry(ptr noundef %44, i32 noundef %45)
  store i32 %46, ptr %9, align 4
  br label %47

47:                                               ; preds = %43, %38
  %48 = phi i1 [ false, %38 ], [ true, %43 ]
  br i1 %48, label %49, label %71

49:                                               ; preds = %47
  %50 = load i32, ptr %9, align 4
  %51 = icmp sgt i32 %50, 0
  br i1 %51, label %52, label %64

52:                                               ; preds = %49
  %53 = load i32, ptr %9, align 4
  %54 = load ptr, ptr %4, align 8
  %55 = call i32 @Gia_ManObjNum(ptr noundef %54)
  %56 = icmp slt i32 %53, %55
  br i1 %56, label %57, label %64

57:                                               ; preds = %52
  %58 = load ptr, ptr %4, align 8
  %59 = load i32, ptr %9, align 4
  %60 = call ptr @Gia_ManObj(ptr noundef %58, i32 noundef %59)
  %61 = load i64, ptr %60, align 4
  %62 = and i64 %61, -1073741825
  %63 = or i64 %62, 1073741824
  store i64 %63, ptr %60, align 4
  br label %67

64:                                               ; preds = %52, %49
  %65 = load i32, ptr %9, align 4
  %66 = call i32 (ptr, ...) @printf(ptr noundef @.str.2, i32 noundef %65)
  br label %67

67:                                               ; preds = %64, %57
  br label %68

68:                                               ; preds = %67
  %69 = load i32, ptr %8, align 4
  %70 = add nsw i32 %69, 1
  store i32 %70, ptr %8, align 4
  br label %38, !llvm.loop !7

71:                                               ; preds = %47
  store i32 0, ptr %8, align 4
  br label %72

72:                                               ; preds = %103, %71
  %73 = load i32, ptr %8, align 4
  %74 = add nsw i32 %73, 1
  %75 = load ptr, ptr %6, align 8
  %76 = call i32 @Vec_IntSize(ptr noundef %75)
  %77 = icmp slt i32 %74, %76
  br i1 %77, label %78, label %87

78:                                               ; preds = %72
  %79 = load ptr, ptr %6, align 8
  %80 = load i32, ptr %8, align 4
  %81 = call i32 @Vec_IntEntry(ptr noundef %79, i32 noundef %80)
  store i32 %81, ptr %9, align 4
  br i1 true, label %82, label %87

82:                                               ; preds = %78
  %83 = load ptr, ptr %6, align 8
  %84 = load i32, ptr %8, align 4
  %85 = add nsw i32 %84, 1
  %86 = call i32 @Vec_IntEntry(ptr noundef %83, i32 noundef %85)
  store i32 %86, ptr %10, align 4
  br label %87

87:                                               ; preds = %82, %78, %72
  %88 = phi i1 [ false, %78 ], [ false, %72 ], [ true, %82 ]
  br i1 %88, label %89, label %106

89:                                               ; preds = %87
  %90 = load ptr, ptr %4, align 8
  %91 = load i32, ptr %9, align 4
  %92 = call ptr @Gia_ManObj(ptr noundef %90, i32 noundef %91)
  %93 = load i64, ptr %92, align 4
  %94 = lshr i64 %93, 30
  %95 = and i64 %94, 1
  %96 = trunc i64 %95 to i32
  %97 = icmp ne i32 %96, 0
  br i1 %97, label %98, label %102

98:                                               ; preds = %89
  %99 = load ptr, ptr %11, align 8
  %100 = load i32, ptr %8, align 4
  %101 = call i32 @Abc_Lit2Var(i32 noundef %100)
  call void @Vec_IntPush(ptr noundef %99, i32 noundef %101)
  br label %102

102:                                              ; preds = %98, %89
  br label %103

103:                                              ; preds = %102
  %104 = load i32, ptr %8, align 4
  %105 = add nsw i32 %104, 2
  store i32 %105, ptr %8, align 4
  br label %72, !llvm.loop !8

106:                                              ; preds = %87
  store i32 0, ptr %8, align 4
  br label %107

107:                                              ; preds = %125, %106
  %108 = load i32, ptr %8, align 4
  %109 = load ptr, ptr %4, align 8
  %110 = getelementptr inbounds %struct.Gia_Man_t_, ptr %109, i32 0, i32 4
  %111 = load i32, ptr %110, align 8
  %112 = icmp slt i32 %108, %111
  br i1 %112, label %113, label %118

113:                                              ; preds = %107
  %114 = load ptr, ptr %4, align 8
  %115 = load i32, ptr %8, align 4
  %116 = call ptr @Gia_ManObj(ptr noundef %114, i32 noundef %115)
  store ptr %116, ptr %7, align 8
  %117 = icmp ne ptr %116, null
  br label %118

118:                                              ; preds = %113, %107
  %119 = phi i1 [ false, %107 ], [ %117, %113 ]
  br i1 %119, label %120, label %128

120:                                              ; preds = %118
  %121 = load ptr, ptr %7, align 8
  %122 = load i64, ptr %121, align 4
  %123 = and i64 %122, -1073741825
  %124 = or i64 %123, 0
  store i64 %124, ptr %121, align 4
  br label %125

125:                                              ; preds = %120
  %126 = load i32, ptr %8, align 4
  %127 = add nsw i32 %126, 1
  store i32 %127, ptr %8, align 4
  br label %107, !llvm.loop !9

128:                                              ; preds = %118
  %129 = load ptr, ptr %12, align 8
  call void @Vec_IntFree(ptr noundef %129)
  %130 = load ptr, ptr %11, align 8
  ret ptr %130
}