; Function Attrs: nounwind uwtable
define noalias noundef ptr @Bmc_ManBCoreCollectPivots(ptr noundef readonly captures(none) %0, ptr noundef readonly captures(none) %1, ptr noundef readonly captures(none) %2) local_unnamed_addr #0 {
  %4 = tail call noalias dereferenceable_or_null(16) ptr @malloc(i64 noundef 16) #15
  %5 = getelementptr inbounds nuw i8, ptr %4, i64 4
  store i32 0, ptr %5, align 4
  store i32 100, ptr %4, align 8
  %6 = tail call noalias dereferenceable_or_null(400) ptr @malloc(i64 noundef 400) #15
  %7 = getelementptr inbounds nuw i8, ptr %4, i64 8
  store ptr %6, ptr %7, align 8
  %8 = tail call ptr @Bmc_ManBCoreReadPivots(ptr noundef %1)
  %9 = getelementptr i8, ptr %0, i64 32
  %10 = getelementptr inbounds nuw i8, ptr %0, i64 24
  %11 = load i32, ptr %10, align 8
  %12 = icmp sgt i32 %11, 0
  br i1 %12, label %.lr.ph, label %.critedge

.lr.ph:                                           ; preds = %3, %13
  %indvars.iv = phi i64 [ %indvars.iv.next, %13 ], [ 0, %3 ]
  %.val = load ptr, ptr %9, align 8
  %.not = icmp eq ptr %.val, null
  br i1 %.not, label %.critedge, label %13

13:                                               ; preds = %.lr.ph
  %14 = getelementptr inbounds nuw %struct.Gia_Obj_t_, ptr %.val, i64 %indvars.iv
  %15 = load i64, ptr %14, align 4
  %16 = and i64 %15, -1073741825
  store i64 %16, ptr %14, align 4
  %indvars.iv.next = add nuw nsw i64 %indvars.iv, 1
  %17 = load i32, ptr %10, align 8
  %18 = sext i32 %17 to i64
  %19 = icmp slt i64 %indvars.iv.next, %18
  br i1 %19, label %.lr.ph, label %.critedge, !llvm.loop !6

.critedge:                                        ; preds = %.lr.ph, %13, %3
  %20 = getelementptr i8, ptr %8, i64 4
  %.val51 = load i32, ptr %20, align 4
  %21 = icmp sgt i32 %.val51, 0
  br i1 %21, label %.lr.ph60, label %.critedge2.preheader

.lr.ph60:                                         ; preds = %.critedge
  %22 = getelementptr i8, ptr %8, i64 8
  %.val53 = load ptr, ptr %22, align 8
  %wide.trip.count = zext nneg i32 %.val51 to i64
  br label %26

.critedge2.preheader:                             ; preds = %39, %.critedge
  %23 = getelementptr i8, ptr %2, i64 4
  %.val5261 = load i32, ptr %23, align 4
  %24 = icmp sgt i32 %.val5261, 1
  br i1 %24, label %.lr.ph63, label %.critedge4.preheader

.lr.ph63:                                         ; preds = %.critedge2.preheader
  %25 = getelementptr i8, ptr %2, i64 8
  br label %42

26:                                               ; preds = %.lr.ph60, %39
  %indvars.iv67 = phi i64 [ 0, %.lr.ph60 ], [ %indvars.iv.next68, %39 ]
  %27 = getelementptr inbounds nuw i32, ptr %.val53, i64 %indvars.iv67
  %28 = load i32, ptr %27, align 4
  %29 = icmp sgt i32 %28, 0
  br i1 %29, label %30, label %37

30:                                               ; preds = %26
  %.val56 = load i32, ptr %10, align 8
  %31 = icmp slt i32 %28, %.val56
  br i1 %31, label %32, label %37

32:                                               ; preds = %30
  %.val48 = load ptr, ptr %9, align 8
  %33 = zext nneg i32 %28 to i64
  %34 = getelementptr inbounds nuw %struct.Gia_Obj_t_, ptr %.val48, i64 %33
  %35 = load i64, ptr %34, align 4
  %36 = or i64 %35, 1073741824
  store i64 %36, ptr %34, align 4
  br label %39

37:                                               ; preds = %30, %26
  %38 = tail call i32 (ptr, ...) @printf(ptr noundef nonnull dereferenceable(1) @.str.2, i32 noundef %28)
  br label %39

39:                                               ; preds = %32, %37
  %indvars.iv.next68 = add nuw nsw i64 %indvars.iv67, 1
  %exitcond.not = icmp eq i64 %indvars.iv.next68, %wide.trip.count
  br i1 %exitcond.not, label %.critedge2.preheader, label %26, !llvm.loop !7

.critedge4.preheader:                             ; preds = %.critedge2, %.critedge2.preheader
  %40 = load i32, ptr %10, align 8
  %41 = icmp sgt i32 %40, 0
  br i1 %41, label %.lr.ph65, label %.critedge6

42:                                               ; preds = %.lr.ph63, %.critedge2
  %.val5276 = phi i32 [ %.val5261, %.lr.ph63 ], [ %.val52, %.critedge2 ]
  %indvars.iv70 = phi i64 [ 0, %.lr.ph63 ], [ %indvars.iv.next71, %.critedge2 ]
  %.val54 = load ptr, ptr %25, align 8
  %43 = getelementptr inbounds nuw i32, ptr %.val54, i64 %indvars.iv70
  %44 = load i32, ptr %43, align 4
  %.val49 = load ptr, ptr %9, align 8
  %45 = sext i32 %44 to i64
  %46 = getelementptr inbounds %struct.Gia_Obj_t_, ptr %.val49, i64 %45
  %47 = load i64, ptr %46, align 4
  %48 = and i64 %47, 1073741824
  %.not47 = icmp eq i64 %48, 0
  br i1 %.not47, label %.critedge2, label %49

49:                                               ; preds = %42
  %50 = lshr exact i64 %indvars.iv70, 1
  %51 = load i32, ptr %5, align 4
  %52 = load i32, ptr %4, align 8
  %53 = icmp eq i32 %51, %52
  br i1 %53, label %54, label %.Vec_IntGrow.exit10_crit_edge.i

.Vec_IntGrow.exit10_crit_edge.i:                  ; preds = %49
  %.pre.i = load ptr, ptr %7, align 8
  br label %Vec_IntPush.exit

54:                                               ; preds = %49
  %55 = icmp slt i32 %51, 16
  br i1 %55, label %56, label %63

56:                                               ; preds = %54
  %57 = load ptr, ptr %7, align 8
  %.not9.i.i = icmp eq ptr %57, null
  br i1 %.not9.i.i, label %60, label %58

58:                                               ; preds = %56
  %59 = tail call dereferenceable_or_null(64) ptr @realloc(ptr noundef nonnull %57, i64 noundef 64) #17
  br label %Vec_IntGrow.exit.i

60:                                               ; preds = %56
  %61 = tail call noalias dereferenceable_or_null(64) ptr @malloc(i64 noundef 64) #15
  br label %Vec_IntGrow.exit.i

Vec_IntGrow.exit.i:                               ; preds = %60, %58
  %62 = phi ptr [ %59, %58 ], [ %61, %60 ]
  store ptr %62, ptr %7, align 8
  store i32 16, ptr %4, align 8
  br label %Vec_IntPush.exit

63:                                               ; preds = %54
  %64 = shl nuw nsw i32 %51, 1
  %65 = load ptr, ptr %7, align 8
  %.not9.i9.i = icmp eq ptr %65, null
  %66 = zext nneg i32 %64 to i64
  %67 = shl nuw nsw i64 %66, 2
  br i1 %.not9.i9.i, label %70, label %68

68:                                               ; preds = %63
  %69 = tail call ptr @realloc(ptr noundef nonnull %65, i64 noundef %67) #17
  br label %72

70:                                               ; preds = %63
  %71 = tail call noalias ptr @malloc(i64 noundef %67) #15
  br label %72

72:                                               ; preds = %70, %68
  %73 = phi ptr [ %69, %68 ], [ %71, %70 ]
  store ptr %73, ptr %7, align 8
  store i32 %64, ptr %4, align 8
  br label %Vec_IntPush.exit

Vec_IntPush.exit:                                 ; preds = %.Vec_IntGrow.exit10_crit_edge.i, %Vec_IntGrow.exit.i, %72
  %74 = phi ptr [ %.pre.i, %.Vec_IntGrow.exit10_crit_edge.i ], [ %73, %72 ], [ %62, %Vec_IntGrow.exit.i ]
  %75 = add nsw i32 %51, 1
  store i32 %75, ptr %5, align 4
  %76 = sext i32 %51 to i64
  %77 = getelementptr inbounds i32, ptr %74, i64 %76
  %78 = trunc nuw i64 %50 to i32
  store i32 %78, ptr %77, align 4
  %.val52.pre = load i32, ptr %23, align 4
  br label %.critedge2

.critedge2:                                       ; preds = %42, %Vec_IntPush.exit
  %.val52 = phi i32 [ %.val5276, %42 ], [ %.val52.pre, %Vec_IntPush.exit ]
  %indvars.iv.next71 = add nuw nsw i64 %indvars.iv70, 2
  %79 = trunc i64 %indvars.iv.next71 to i32
  %80 = or disjoint i32 %79, 1
  %81 = icmp slt i32 %80, %.val52
  br i1 %81, label %42, label %.critedge4.preheader, !llvm.loop !8

.lr.ph65:                                         ; preds = %.critedge4.preheader, %.critedge4
  %indvars.iv73 = phi i64 [ %indvars.iv.next74, %.critedge4 ], [ 0, %.critedge4.preheader ]
  %.val50 = load ptr, ptr %9, align 8
  %.not46 = icmp eq ptr %.val50, null
  br i1 %.not46, label %.critedge6, label %.critedge4

.critedge4:                                       ; preds = %.lr.ph65
  %82 = getelementptr inbounds nuw %struct.Gia_Obj_t_, ptr %.val50, i64 %indvars.iv73
  %83 = load i64, ptr %82, align 4
  %84 = and i64 %83, -1073741825
  store i64 %84, ptr %82, align 4
  %indvars.iv.next74 = add nuw nsw i64 %indvars.iv73, 1
  %85 = load i32, ptr %10, align 8
  %86 = sext i32 %85 to i64
  %87 = icmp slt i64 %indvars.iv.next74, %86
  br i1 %87, label %.lr.ph65, label %.critedge6, !llvm.loop !9

.critedge6:                                       ; preds = %.lr.ph65, %.critedge4, %.critedge4.preheader
  %88 = getelementptr inbounds nuw i8, ptr %8, i64 8
  %89 = load ptr, ptr %88, align 8
  %.not.i = icmp eq ptr %89, null
  br i1 %.not.i, label %Vec_IntFree.exit, label %90

90:                                               ; preds = %.critedge6
  tail call void @free(ptr noundef nonnull %89) #16
  br label %Vec_IntFree.exit

Vec_IntFree.exit:                                 ; preds = %.critedge6, %90
  tail call void @free(ptr noundef nonnull %8) #16
  ret ptr %4
}